target datalayout = "e-m:e-p270:32:32-p271:32:32-p272:64:64-i64:64-i128:128-f80:128-n8:16:32:64-S128"
target triple = "x86_64-pc-linux-gnu"

%struct.JNINativeInterface_ = type { ptr, ptr, ptr, ptr, ptr, ptr, ptr, ptr, ptr, ptr, ptr, ptr, ptr, ptr, ptr, ptr, ptr, ptr, ptr, ptr, ptr, ptr, ptr, ptr, ptr, ptr, ptr, ptr, ptr, ptr, ptr, ptr, ptr, ptr, ptr, ptr, ptr, ptr, ptr, ptr, ptr, ptr, ptr, ptr, ptr, ptr, ptr, ptr, ptr, ptr, ptr, ptr, ptr, ptr, ptr, ptr, ptr, ptr, ptr, ptr, ptr, ptr, ptr, ptr, ptr, ptr, ptr, ptr, ptr, ptr, ptr, ptr, ptr, ptr, ptr, ptr, ptr, ptr, ptr, ptr, ptr, ptr, ptr, ptr, ptr, ptr, ptr, ptr, ptr, ptr, ptr, ptr, ptr, ptr, ptr, ptr, ptr, ptr, ptr, ptr, ptr, ptr, ptr, ptr, ptr, ptr, ptr, ptr, ptr, ptr, ptr, ptr, ptr, ptr, ptr, ptr, ptr, ptr, ptr, ptr, ptr, ptr, ptr, ptr, ptr, ptr, ptr, ptr, ptr, ptr, ptr, ptr, ptr, ptr, ptr, ptr, ptr, ptr, ptr, ptr, ptr, ptr, ptr, ptr, ptr, ptr, ptr, ptr, ptr, ptr, ptr, ptr, ptr, ptr, ptr, ptr, ptr, ptr, ptr, ptr, ptr, ptr, ptr, ptr, ptr, ptr, ptr, ptr, ptr, ptr, ptr, ptr, ptr, ptr, ptr, ptr, ptr, ptr, ptr, ptr, ptr, ptr, ptr, ptr, ptr, ptr, ptr, ptr, ptr, ptr, ptr, ptr, ptr, ptr, ptr, ptr, ptr, ptr, ptr, ptr, ptr, ptr, ptr, ptr, ptr, ptr, ptr, ptr, ptr, ptr, ptr, ptr, ptr, ptr, ptr, ptr, ptr, ptr, ptr, ptr, ptr, ptr, ptr, ptr, ptr, ptr, ptr, ptr, ptr, ptr, ptr, ptr, ptr, ptr, ptr }

@tkClass = hidden global ptr null, align 8
@awtLockMID = hidden global ptr null, align 8
@awtUnlockMID = hidden global ptr null, align 8

; Function Attrs: nounwind uwtable
define void @Java_sun_awt_X11GraphicsDevice_exitFullScreenExclusive(ptr noundef %0, ptr noundef %1, i64 noundef %2) #0 {
  %4 = alloca ptr, align 8
  %5 = alloca ptr, align 8
  %6 = alloca i64, align 8
  %7 = alloca i64, align 8
  %8 = alloca ptr, align 8
  store ptr %0, ptr %4, align 8
  store ptr %1, ptr %5, align 8
  store i64 %2, ptr %6, align 8
  %9 = load i64, ptr %6, align 8
  store i64 %9, ptr %7, align 8
  br label %10

10:                                               ; preds = %3
  %11 = load ptr, ptr %4, align 8
  %12 = load ptr, ptr %11, align 8
  %13 = getelementptr inbounds %struct.JNINativeInterface_, ptr %12, i32 0, i32 228
  %14 = load ptr, ptr %13, align 8
  %15 = load ptr, ptr %4, align 8
  %16 = call zeroext i8 %14(ptr noundef %15)
  %17 = icmp ne i8 %16, 0
  br i1 %17, label %18, label %24

18:                                               ; preds = %10
  %19 = load ptr, ptr %4, align 8
  %20 = load ptr, ptr %19, align 8
  %21 = getelementptr inbounds %struct.JNINativeInterface_, ptr %20, i32 0, i32 17
  %22 = load ptr, ptr %21, align 8
  %23 = load ptr, ptr %4, align 8
  call void %22(ptr noundef %23)
  br label %24

24:                                               ; preds = %18, %10
  %25 = load ptr, ptr %4, align 8
  %26 = load ptr, ptr %25, align 8
  %27 = getelementptr inbounds %struct.JNINativeInterface_, ptr %26, i32 0, i32 141
  %28 = load ptr, ptr %27, align 8
  %29 = load ptr, ptr %4, align 8
  %30 = load ptr, ptr @tkClass, align 8
  %31 = load ptr, ptr @awtLockMID, align 8
  call void (ptr, ptr, ptr, ...) %28(ptr noundef %29, ptr noundef %30, ptr noundef %31)
  %32 = load ptr, ptr %4, align 8
  %33 = load ptr, ptr %32, align 8
  %34 = getelementptr inbounds %struct.JNINativeInterface_, ptr %33, i32 0, i32 228
  %35 = load ptr, ptr %34, align 8
  %36 = load ptr, ptr %4, align 8
  %37 = call zeroext i8 %35(ptr noundef %36)
  %38 = icmp ne i8 %37, 0
  br i1 %38, label %39, label %45

39:                                               ; preds = %24
  %40 = load ptr, ptr %4, align 8
  %41 = load ptr, ptr %40, align 8
  %42 = getelementptr inbounds %struct.JNINativeInterface_, ptr %41, i32 0, i32 17
  %43 = load ptr, ptr %42, align 8
  %44 = load ptr, ptr %4, align 8
  call void %43(ptr noundef %44)
  br label %45

45:                                               ; preds = %39, %24
  br label %46

46:                                               ; preds = %45
  %47 = load i64, ptr %7, align 8
  call void @X11GD_SetFullscreenMode(i64 noundef %47, i8 noundef zeroext 0)
  br label %48

48:                                               ; preds = %46
  call void (...) @awt_output_flush()
  br label %49

49:                                               ; preds = %48
  %50 = load ptr, ptr %4, align 8
  %51 = load ptr, ptr %50, align 8
  %52 = getelementptr inbounds %struct.JNINativeInterface_, ptr %51, i32 0, i32 15
  %53 = load ptr, ptr %52, align 8
  %54 = load ptr, ptr %4, align 8
  %55 = call ptr %53(ptr noundef %54)
  store ptr %55, ptr %8, align 8
  %56 = icmp ne ptr %55, null
  br i1 %56, label %57, label %63

57:                                               ; preds = %49
  %58 = load ptr, ptr %4, align 8
  %59 = load ptr, ptr %58, align 8
  %60 = getelementptr inbounds %struct.JNINativeInterface_, ptr %59, i32 0, i32 17
  %61 = load ptr, ptr %60, align 8
  %62 = load ptr, ptr %4, align 8
  call void %61(ptr noundef %62)
  br label %63

63:                                               ; preds = %57, %49
  %64 = load ptr, ptr %4, align 8
  %65 = load ptr, ptr %64, align 8
  %66 = getelementptr inbounds %struct.JNINativeInterface_, ptr %65, i32 0, i32 141
  %67 = load ptr, ptr %66, align 8
  %68 = load ptr, ptr %4, align 8
  %69 = load ptr, ptr @tkClass, align 8
  %70 = load ptr, ptr @awtUnlockMID, align 8
  call void (ptr, ptr, ptr, ...) %67(ptr noundef %68, ptr noundef %69, ptr noundef %70)
  %71 = load ptr, ptr %4, align 8
  %72 = load ptr, ptr %71, align 8
  %73 = getelementptr inbounds %struct.JNINativeInterface_, ptr %72, i32 0, i32 228
  %74 = load ptr, ptr %73, align 8
  %75 = load ptr, ptr %4, align 8
  %76 = call zeroext i8 %74(ptr noundef %75)
  %77 = icmp ne i8 %76, 0
  br i1 %77, label %78, label %84

78:                                               ; preds = %63
  %79 = load ptr, ptr %4, align 8
  %80 = load ptr, ptr %79, align 8
  %81 = getelementptr inbounds %struct.JNINativeInterface_, ptr %80, i32 0, i32 17
  %82 = load ptr, ptr %81, align 8
  %83 = load ptr, ptr %4, align 8
  call void %82(ptr noundef %83)
  br label %84

84:                                               ; preds = %78, %63
  %85 = load ptr, ptr %8, align 8
  %86 = icmp ne ptr %85, null
  br i1 %86, label %87, label %95

87:                                               ; preds = %84
  %88 = load ptr, ptr %4, align 8
  %89 = load ptr, ptr %88, align 8
  %90 = getelementptr inbounds %struct.JNINativeInterface_, ptr %89, i32 0, i32 13
  %91 = load ptr, ptr %90, align 8
  %92 = load ptr, ptr %4, align 8
  %93 = load ptr, ptr %8, align 8
  %94 = call i32 %91(ptr noundef %92, ptr noundef %93)
  br label %95

95:                                               ; preds = %87, %84
  br label %96

96:                                               ; preds = %95
  br label %97

97:                                               ; preds = %96
  ret void
}