; Function Attrs: nounwind uwtable
define void @Java_sun_awt_X11GraphicsDevice_exitFullScreenExclusive(ptr noundef %0, ptr nocapture noundef readnone %1, i64 noundef %2) local_unnamed_addr #0 {
  %4 = load ptr, ptr %0, align 8
  %5 = getelementptr inbounds i8, ptr %4, i64 1824
  %6 = load ptr, ptr %5, align 8
  %7 = tail call zeroext i8 %6(ptr noundef nonnull %0) #17
  %.not = icmp eq i8 %7, 0
  br i1 %.not, label %12, label %8

8:                                                ; preds = %3
  %9 = load ptr, ptr %0, align 8
  %10 = getelementptr inbounds i8, ptr %9, i64 136
  %11 = load ptr, ptr %10, align 8
  tail call void %11(ptr noundef nonnull %0) #17
  br label %12

12:                                               ; preds = %8, %3
  %13 = load ptr, ptr %0, align 8
  %14 = getelementptr inbounds i8, ptr %13, i64 1128
  %15 = load ptr, ptr %14, align 8
  %16 = load ptr, ptr @tkClass, align 8
  %17 = load ptr, ptr @awtLockMID, align 8
  tail call void (ptr, ptr, ptr, ...) %15(ptr noundef nonnull %0, ptr noundef %16, ptr noundef %17) #17
  %18 = load ptr, ptr %0, align 8
  %19 = getelementptr inbounds i8, ptr %18, i64 1824
  %20 = load ptr, ptr %19, align 8
  %21 = tail call zeroext i8 %20(ptr noundef nonnull %0) #17
  %.not25 = icmp eq i8 %21, 0
  br i1 %.not25, label %26, label %22

22:                                               ; preds = %12
  %23 = load ptr, ptr %0, align 8
  %24 = getelementptr inbounds i8, ptr %23, i64 136
  %25 = load ptr, ptr %24, align 8
  tail call void %25(ptr noundef nonnull %0) #17
  br label %26

26:                                               ; preds = %12, %22
  tail call fastcc void @X11GD_SetFullscreenMode(i64 noundef %2, i8 noundef zeroext 0)
  tail call void (...) @awt_output_flush() #17
  %27 = load ptr, ptr %0, align 8
  %28 = getelementptr inbounds i8, ptr %27, i64 120
  %29 = load ptr, ptr %28, align 8
  %30 = tail call ptr %29(ptr noundef nonnull %0) #17
  %.not26 = icmp eq ptr %30, null
  br i1 %.not26, label %35, label %31

31:                                               ; preds = %26
  %32 = load ptr, ptr %0, align 8
  %33 = getelementptr inbounds i8, ptr %32, i64 136
  %34 = load ptr, ptr %33, align 8
  tail call void %34(ptr noundef nonnull %0) #17
  br label %35

35:                                               ; preds = %31, %26
  %36 = load ptr, ptr %0, align 8
  %37 = getelementptr inbounds i8, ptr %36, i64 1128
  %38 = load ptr, ptr %37, align 8
  %39 = load ptr, ptr @tkClass, align 8
  %40 = load ptr, ptr @awtUnlockMID, align 8
  tail call void (ptr, ptr, ptr, ...) %38(ptr noundef nonnull %0, ptr noundef %39, ptr noundef %40) #17
  %41 = load ptr, ptr %0, align 8
  %42 = getelementptr inbounds i8, ptr %41, i64 1824
  %43 = load ptr, ptr %42, align 8
  %44 = tail call zeroext i8 %43(ptr noundef nonnull %0) #17
  %.not27 = icmp eq i8 %44, 0
  br i1 %.not27, label %49, label %45

45:                                               ; preds = %35
  %46 = load ptr, ptr %0, align 8
  %47 = getelementptr inbounds i8, ptr %46, i64 136
  %48 = load ptr, ptr %47, align 8
  tail call void %48(ptr noundef nonnull %0) #17
  br label %49

49:                                               ; preds = %45, %35
  br i1 %.not26, label %55, label %50

50:                                               ; preds = %49
  %51 = load ptr, ptr %0, align 8
  %52 = getelementptr inbounds i8, ptr %51, i64 104
  %53 = load ptr, ptr %52, align 8
  %54 = tail call i32 %53(ptr noundef nonnull %0, ptr noundef nonnull %30) #17
  br label %55

55:                                               ; preds = %50, %49
  ret void
}